; Function Attrs: mustprogress nofree norecurse nosync nounwind willreturn memory(argmem: readwrite) uwtable
define void @_ZN8QuantLib17StochasticProcessC2EN5boost10shared_ptrINS0_14discretizationEEE(ptr noundef nonnull align 8 dereferenceable(128) %this, ptr nocapture noundef %disc) unnamed_addr #6 align 2 personality ptr @__gxx_personality_v0 {
entry:
  %0 = getelementptr inbounds i8, ptr %this, i64 16
  store i32 0, ptr %0, align 8, !tbaa !8
  %_M_parent.i.i.i.i.i.i = getelementptr inbounds i8, ptr %this, i64 24
  store ptr null, ptr %_M_parent.i.i.i.i.i.i, align 8, !tbaa !13
  %_M_left.i.i.i.i.i.i = getelementptr inbounds i8, ptr %this, i64 32
  store ptr %0, ptr %_M_left.i.i.i.i.i.i, align 8, !tbaa !14
  %_M_right.i.i.i.i.i.i = getelementptr inbounds i8, ptr %this, i64 40
  store ptr %0, ptr %_M_right.i.i.i.i.i.i, align 8, !tbaa !15
  %_M_node_count.i.i.i.i.i.i = getelementptr inbounds i8, ptr %this, i64 48
  store i64 0, ptr %_M_node_count.i.i.i.i.i.i, align 8, !tbaa !16
  %1 = getelementptr inbounds i8, ptr %this, i64 56
  %2 = getelementptr inbounds i8, ptr %this, i64 72
  store i32 0, ptr %2, align 8, !tbaa !8
  %_M_parent.i.i.i.i.i.i1 = getelementptr inbounds i8, ptr %this, i64 80
  store ptr null, ptr %_M_parent.i.i.i.i.i.i1, align 8, !tbaa !13
  %_M_left.i.i.i.i.i.i2 = getelementptr inbounds i8, ptr %this, i64 88
  store ptr %2, ptr %_M_left.i.i.i.i.i.i2, align 8, !tbaa !14
  %_M_right.i.i.i.i.i.i3 = getelementptr inbounds i8, ptr %this, i64 96
  store ptr %2, ptr %_M_right.i.i.i.i.i.i3, align 8, !tbaa !15
  %_M_node_count.i.i.i.i.i.i4 = getelementptr inbounds i8, ptr %this, i64 104
  store i64 0, ptr %_M_node_count.i.i.i.i.i.i4, align 8, !tbaa !16
  store ptr getelementptr inbounds inrange(-16, 120) (i8, ptr @_ZTVN8QuantLib17StochasticProcessE, i64 16), ptr %this, align 8, !tbaa !28
  store ptr getelementptr inbounds inrange(-16, 16) (i8, ptr @_ZTVN8QuantLib17StochasticProcessE, i64 152), ptr %1, align 8, !tbaa !28
  %discretization_ = getelementptr inbounds nuw i8, ptr %this, i64 112
  %3 = load ptr, ptr %disc, align 8, !tbaa !30
  store ptr %3, ptr %discretization_, align 8, !tbaa !30
  %pn.i = getelementptr inbounds nuw i8, ptr %this, i64 120
  %pn3.i = getelementptr inbounds nuw i8, ptr %disc, i64 8
  %4 = load ptr, ptr %pn3.i, align 8, !tbaa !33
  store ptr %4, ptr %pn.i, align 8, !tbaa !33
  tail call void @llvm.memset.p0.i64(ptr noundef nonnull align 8 dereferenceable(16) %disc, i8 0, i64 16, i1 false)
  ret void
}